Certificate:
    Data:
        Version: 3 (0x2)
        Serial Number: 4098 (0x1002)
    Signature Algorithm: md5WithRSAEncryption
        Issuer: C=US, ST=Utah, L=Salt Lake City, O=University of Utah, OU=Masters of Software Development, CN=UofUMSD/emailAddress=jonathan.c.sullivan@gmail.com
        Validity
            Not Before: Mar 14 17:30:11 2020 GMT
            Not After : Mar 14 17:30:11 2021 GMT
        Subject: C=US, ST=Utah, O=University of Utah, OU=Masters of Software Development, CN=client/emailAddress=jonathan.c.sullivan@gmail.com
        Subject Public Key Info:
            Public Key Algorithm: rsaEncryption
                Public-Key: (4096 bit)
                Modulus:
                    00:bd:41:69:4b:29:d5:3d:18:bb:5f:f8:c8:03:62:
                    51:db:84:cb:c2:34:dd:af:7c:6e:9c:78:fe:86:85:
                    5a:10:ed:ee:36:af:40:fc:ba:3c:22:62:40:ba:07:
                    5b:af:ef:03:e4:f0:08:fe:66:65:da:db:8e:0a:3b:
                    ef:9f:70:c5:d0:e8:66:62:8d:4f:2a:1c:26:f4:32:
                    d5:68:63:dc:1c:df:92:64:56:43:cb:82:c5:45:0f:
                    86:96:a3:fc:02:fa:ef:12:61:7b:5b:3d:aa:e2:b0:
                    c7:58:ef:b1:87:cd:63:32:06:86:7b:72:12:f7:61:
                    bc:b0:8e:3d:56:84:9e:3d:13:3b:35:b0:98:28:b7:
                    c2:86:ae:43:a5:52:ee:93:7b:45:ba:ef:f7:11:61:
                    99:21:ff:0f:14:ee:61:6a:79:63:c7:70:dd:00:f4:
                    c9:e8:03:23:76:d9:34:df:b7:6f:f0:ec:f1:81:fb:
                    88:42:0d:1f:9e:67:d5:f0:44:d7:b2:67:07:fd:b6:
                    b2:ad:f7:2b:19:71:48:f1:2e:96:a2:3c:fe:d2:2e:
                    61:44:c9:6f:33:b9:ee:5a:6a:d7:4b:f3:49:6b:51:
                    ad:d9:16:1e:f1:47:6c:9d:f0:d4:06:83:82:6e:06:
                    33:d8:19:e4:83:d2:37:0f:41:83:32:8d:07:7e:0c:
                    45:3a:46:eb:a6:aa:4a:b8:1a:86:2f:1a:1d:4f:c9:
                    93:b5:8d:31:91:7c:1e:c6:4a:86:ae:20:8b:85:2b:
                    03:dd:50:42:aa:eb:5c:f7:6f:33:13:dd:8d:76:88:
                    35:9e:b9:d2:df:59:c8:cc:7b:8c:d5:2b:27:eb:40:
                    01:67:cf:56:5c:da:bd:ef:7d:26:44:b7:df:e2:2c:
                    b1:27:1a:1a:10:f9:5e:a8:62:51:cf:40:fa:2f:f1:
                    9a:eb:c9:b4:e7:b4:44:f2:f2:98:29:51:05:dd:a4:
                    a4:34:47:0a:d9:8f:9d:99:af:f4:1d:1f:43:39:3f:
                    a2:e5:de:82:3b:3b:5d:2a:1b:fb:80:d1:a6:33:a9:
                    b1:f1:50:de:7b:02:99:db:8f:5a:26:0e:9f:a9:94:
                    43:2d:d9:57:12:24:bc:6e:ca:47:d1:c8:38:d0:55:
                    e9:c1:bc:cf:4e:46:2f:d4:7a:0b:35:a1:d5:f7:34:
                    6f:b4:b4:14:18:a5:6a:4c:41:8a:cf:e5:de:96:99:
                    08:66:8d:ea:f4:49:f2:8c:c9:8a:18:c0:fc:2e:8d:
                    14:8f:24:44:bb:68:3e:c3:67:50:d8:76:17:ac:f4:
                    bf:f9:4f:62:0b:e8:28:3a:d4:e1:58:70:aa:30:b5:
                    cb:e6:62:27:54:41:52:66:b2:b1:04:09:37:ff:ad:
                    0b:ae:67
                Exponent: 65537 (0x10001)
        X509v3 extensions:
            X509v3 Basic Constraints: 
                CA:FALSE
            Netscape Comment: 
                OpenSSL Generated Certificate
            X509v3 Subject Key Identifier: 
                8D:A7:10:3E:61:65:D4:D0:3B:C9:0C:D4:32:54:64:05:DB:86:5C:9D
            X509v3 Authority Key Identifier: 
                DirName:/C=US/ST=Utah/L=Salt Lake City/O=University of Utah/OU=Masters of Software Development/CN=UofUMSD/emailAddress=jonathan.c.sullivan@gmail.com
                serial:D1:E2:A4:97:9C:58:1D:6A

    Signature Algorithm: md5WithRSAEncryption
         e9:72:47:32:a3:d2:26:a5:c7:a4:98:ac:54:a5:c0:a9:c1:b8:
         e5:5c:d0:68:1f:5a:fe:ab:84:68:e7:eb:c9:7d:87:a9:ad:b0:
         fd:94:4b:ee:6b:46:86:9b:5d:2b:3b:de:3d:e5:66:52:10:da:
         e2:1e:9e:ea:ec:fa:d8:56:2b:ae:6c:27:d3:01:4c:47:1e:5b:
         c0:dc:ed:be:9a:2e:ae:37:b4:c9:4f:40:6f:a5:ba:65:30:13:
         b0:78:82:a4:42:9a:07:78:10:44:b3:4b:b7:5c:8b:65:d0:54:
         aa:29:e1:48:d5:31:29:78:1b:15:35:4c:9d:c2:7a:b9:ed:81:
         99:b0:8a:13:90:72:1e:4a:a6:6a:8b:ad:e6:1f:56:ba:e9:b3:
         89:bd:2e:71:1c:b0:17:b5:3f:87:b6:7a:8d:3f:3d:07:46:ab:
         51:f8:35:0d:b8:5f:dd:83:19:60:f6:a7:ab:44:6f:a4:c4:09:
         a9:cd:e9:f7:d3:83:ad:aa:59:9f:6c:20:54:cc:40:5a:39:3c:
         8c:e4:03:6b:da:19:1e:19:27:19:8b:16:5b:73:f4:0b:f3:01:
         5b:08:e1:98:61:07:b4:84:b4:e0:fc:e2:5e:12:5e:12:79:46:
         a5:bf:ae:30:ae:7e:95:04:94:47:06:6f:7d:ad:ab:24:23:de:
         04:9e:8e:77:bd:c6:9e:a7:e7:51:11:37:be:0e:78:d1:db:f2:
         c4:61:43:99:b6:93:93:ea:93:d4:6f:63:01:e4:82:8b:6d:28:
         94:94:e5:ac:83:c6:d7:91:36:74:cb:4a:35:df:fb:4d:d0:29:
         5d:cb:0a:14:d0:f3:f1:7f:72:f9:21:6d:73:0f:17:00:4b:0b:
         61:b8:d7:6c:89:f7:79:e8:77:02:c9:74:9a:ad:c2:d5:76:43:
         a6:03:2b:d2:26:a4:3f:eb:6b:df:8a:3f:af:60:8d:85:7e:71:
         cb:88:be:07:f6:05:48:a4:a6:9d:35:58:cc:28:1e:bc:83:7c:
         be:c4:8b:8b:ab:a6:08:e7:74:1f:82:35:fe:7f:f7:33:f5:25:
         a8:37:c7:42:e2:e8:c0:03:a3:d4:a1:ef:c9:dd:bf:13:c1:db:
         99:57:ae:6d:d8:66:68:2f:ce:89:90:cc:d7:86:21:5a:0c:16:
         60:8c:d4:02:fd:3c:77:ce:e4:b8:ea:bc:bf:84:72:03:31:a4:
         44:54:a7:11:91:49:e3:78:25:45:52:26:16:47:2e:b1:7f:39:
         fd:6d:91:08:71:12:83:2e:ee:60:ca:89:e8:c2:89:8a:3b:f2:
         76:c0:ab:53:d6:b0:2a:9b:52:76:6f:b6:da:e6:f4:7f:56:8f:
         27:0f:55:04:ab:e4:23:22
-----BEGIN CERTIFICATE-----
MIIHGDCCBQCgAwIBAgICEAIwDQYJKoZIhvcNAQEEBQAwgbwxCzAJBgNVBAYTAlVT
MQ0wCwYDVQQIDARVdGFoMRcwFQYDVQQHDA5TYWx0IExha2UgQ2l0eTEbMBkGA1UE
CgwSVW5pdmVyc2l0eSBvZiBVdGFoMSgwJgYDVQQLDB9NYXN0ZXJzIG9mIFNvZnR3
YXJlIERldmVsb3BtZW50MRAwDgYDVQQDDAdVb2ZVTVNEMSwwKgYJKoZIhvcNAQkB
Fh1qb25hdGhhbi5jLnN1bGxpdmFuQGdtYWlsLmNvbTAeFw0yMDAzMTQxNzMwMTFa
Fw0yMTAzMTQxNzMwMTFaMIGiMQswCQYDVQQGEwJVUzENMAsGA1UECAwEVXRhaDEb
MBkGA1UECgwSVW5pdmVyc2l0eSBvZiBVdGFoMSgwJgYDVQQLDB9NYXN0ZXJzIG9m
IFNvZnR3YXJlIERldmVsb3BtZW50MQ8wDQYDVQQDDAZjbGllbnQxLDAqBgkqhkiG
9w0BCQEWHWpvbmF0aGFuLmMuc3VsbGl2YW5AZ21haWwuY29tMIICIjANBgkqhkiG
9w0BAQEFAAOCAg8AMIICCgKCAgEAvUFpSynVPRi7X/jIA2JR24TLwjTdr3xunHj+
hoVaEO3uNq9A/Lo8ImJAugdbr+8D5PAI/mZl2tuOCjvvn3DF0OhmYo1PKhwm9DLV
aGPcHN+SZFZDy4LFRQ+GlqP8AvrvEmF7Wz2q4rDHWO+xh81jMgaGe3IS92G8sI49
VoSePRM7NbCYKLfChq5DpVLuk3tFuu/3EWGZIf8PFO5hanljx3DdAPTJ6AMjdtk0
37dv8OzxgfuIQg0fnmfV8ETXsmcH/bayrfcrGXFI8S6Wojz+0i5hRMlvM7nuWmrX
S/NJa1Gt2RYe8UdsnfDUBoOCbgYz2Bnkg9I3D0GDMo0HfgxFOkbrpqpKuBqGLxod
T8mTtY0xkXwexkqGriCLhSsD3VBCqutc928zE92Ndog1nrnS31nIzHuM1Ssn60AB
Z89WXNq9730mRLff4iyxJxoaEPleqGJRz0D6L/Ga68m057RE8vKYKVEF3aSkNEcK
2Y+dma/0HR9DOT+i5d6COztdKhv7gNGmM6mx8VDeewKZ249aJg6fqZRDLdlXEiS8
bspH0cg40FXpwbzPTkYv1HoLNaHV9zRvtLQUGKVqTEGKz+XelpkIZo3q9EnyjMmK
GMD8Lo0UjyREu2g+w2dQ2HYXrPS/+U9iC+goOtThWHCqMLXL5mInVEFSZrKxBAk3
/60LrmcCAwEAAaOCATowggE2MAkGA1UdEwQCMAAwLAYJYIZIAYb4QgENBB8WHU9w
ZW5TU0wgR2VuZXJhdGVkIENlcnRpZmljYXRlMB0GA1UdDgQWBBSNpxA+YWXU0DvJ
DNQyVGQF24ZcnTCB2wYDVR0jBIHTMIHQoYHCpIG/MIG8MQswCQYDVQQGEwJVUzEN
MAsGA1UECAwEVXRhaDEXMBUGA1UEBwwOU2FsdCBMYWtlIENpdHkxGzAZBgNVBAoM
ElVuaXZlcnNpdHkgb2YgVXRhaDEoMCYGA1UECwwfTWFzdGVycyBvZiBTb2Z0d2Fy
ZSBEZXZlbG9wbWVudDEQMA4GA1UEAwwHVW9mVU1TRDEsMCoGCSqGSIb3DQEJARYd
am9uYXRoYW4uYy5zdWxsaXZhbkBnbWFpbC5jb22CCQDR4qSXnFgdajANBgkqhkiG
9w0BAQQFAAOCAgEA6XJHMqPSJqXHpJisVKXAqcG45VzQaB9a/quEaOfryX2Hqa2w
/ZRL7mtGhptdKzvePeVmUhDa4h6e6uz62FYrrmwn0wFMRx5bwNztvpourje0yU9A
b6W6ZTATsHiCpEKaB3gQRLNLt1yLZdBUqinhSNUxKXgbFTVMncJ6ue2BmbCKE5By
Hkqmaout5h9Wuumzib0ucRywF7U/h7Z6jT89B0arUfg1Dbhf3YMZYPanq0RvpMQJ
qc3p99ODrapZn2wgVMxAWjk8jOQDa9oZHhknGYsWW3P0C/MBWwjhmGEHtIS04Pzi
XhJeEnlGpb+uMK5+lQSURwZvfa2rJCPeBJ6Od73GnqfnURE3vg540dvyxGFDmbaT
k+qT1G9jAeSCi20olJTlrIPG15E2dMtKNd/7TdApXcsKFNDz8X9y+SFtcw8XAEsL
YbjXbIn3eeh3Asl0mq3C1XZDpgMr0iakP+tr34o/r2CNhX5xy4i+B/YFSKSmnTVY
zCgevIN8vsSLi6umCOd0H4I1/n/3M/UlqDfHQuLowAOj1KHvyd2/E8HbmVeubdhm
aC/OiZDM14YhWgwWYIzUAv08d87kuOq8v4RyAzGkRFSnEZFJ43glRVImFkcusX85
/W2RCHESgy7uYMqJ6MKJijvydsCrU9awKptSdm+22ub0f1aPJw9VBKvkIyI=
-----END CERTIFICATE-----
