Certificate:
    Data:
        Version: 3 (0x2)
        Serial Number: 4096 (0x1000)
    Signature Algorithm: md5WithRSAEncryption
        Issuer: C=US, ST=Utah, L=Salt Lake City, O=University of Utah, OU=Masters of Software Development, CN=UofUMSD/emailAddress=jonathan.c.sullivan@gmail.com
        Validity
            Not Before: Mar 14 17:25:06 2020 GMT
            Not After : Mar 14 17:25:06 2021 GMT
        Subject: C=US, ST=Utah, O=University of Utah, OU=Masters of Software Development, CN=UofUMSD/emailAddress=jonathan.c.sullivan@gmail.com
        Subject Public Key Info:
            Public Key Algorithm: rsaEncryption
                Public-Key: (4096 bit)
                Modulus:
                    00:e6:7d:2a:a1:c9:c6:e0:4c:8d:f4:d9:7b:53:42:
                    5f:7f:06:c3:c2:fd:0c:d2:52:99:69:48:24:c6:ab:
                    36:57:aa:20:44:5e:0f:75:c1:0e:8b:ca:47:5b:8b:
                    14:7d:5d:7c:b3:74:1d:34:24:95:86:50:22:ee:97:
                    98:fd:42:e1:f0:d9:a4:6a:1b:7b:ae:44:08:6f:14:
                    a6:ab:47:73:13:0c:55:1c:77:73:67:54:88:73:45:
                    fc:3b:ee:c7:d3:0b:47:1f:5e:4e:45:bd:21:d4:90:
                    40:b7:d2:02:68:a3:90:12:81:36:bf:52:db:6e:7d:
                    02:8f:e6:0e:f0:ee:09:2f:71:d4:32:57:f4:5a:58:
                    c4:66:f7:39:47:b1:62:28:af:d7:28:db:a7:27:c1:
                    64:93:53:3f:0b:25:52:0b:93:43:74:93:6a:4d:19:
                    09:c3:22:79:16:79:d0:44:d2:83:b6:29:4a:ec:f0:
                    62:4a:20:0d:6e:c4:a8:7e:bc:7b:db:eb:e2:a2:e2:
                    b8:56:53:34:10:86:1d:b2:b3:05:ee:6b:67:d7:40:
                    a6:3e:4a:ac:69:d7:0a:20:94:85:9f:2c:f8:00:b0:
                    85:b8:26:52:3a:00:48:da:fc:e2:f5:55:e3:6b:f1:
                    91:26:87:55:96:1b:70:16:ad:01:4b:e5:29:1a:c7:
                    28:44:c8:b8:5f:4b:47:0f:b3:cb:c8:05:6f:69:b4:
                    6b:ee:0f:5b:0a:7c:ae:fb:a6:54:af:93:35:57:a9:
                    87:aa:0c:7b:4a:ee:4f:e5:4d:31:71:5e:e2:47:9f:
                    32:8f:ec:cb:47:b5:1e:2c:4f:9b:0c:ff:fe:57:05:
                    07:78:de:7c:a5:ed:27:d8:3b:48:ad:c1:98:24:68:
                    0e:a8:9f:91:73:35:04:29:f0:72:75:f0:a1:f6:35:
                    81:76:97:10:12:a3:50:e5:5d:35:94:bb:2e:ae:27:
                    85:55:47:9c:c1:cd:55:30:2a:30:20:62:e4:f9:de:
                    6a:82:1d:5a:71:49:72:b7:45:32:e6:0a:99:eb:d7:
                    bc:1e:00:d2:30:9b:9d:35:7e:17:5a:69:e6:de:51:
                    8e:c1:f0:0d:9f:37:07:09:c9:98:a6:ad:0a:1f:f5:
                    9d:fe:ed:61:4b:9b:8d:ca:45:e8:fc:63:90:60:41:
                    13:60:6d:7f:2a:ed:58:1f:34:c5:f4:49:41:42:30:
                    53:6b:48:1f:cb:4b:2d:9a:27:96:ce:9d:63:67:72:
                    30:9c:26:22:44:f8:21:73:47:33:6f:0f:92:81:97:
                    ec:78:78:19:fd:ba:81:c9:13:7d:e9:e4:c5:40:b1:
                    57:3b:65:7d:a4:79:36:c0:91:13:b6:ed:57:9c:e9:
                    02:28:9d
                Exponent: 65537 (0x10001)
        X509v3 extensions:
            X509v3 Basic Constraints: 
                CA:FALSE
            Netscape Comment: 
                OpenSSL Generated Certificate
            X509v3 Subject Key Identifier: 
                DA:2A:13:34:75:B1:05:00:C0:5B:18:F0:C8:47:4F:B6:93:E3:9E:82
            X509v3 Authority Key Identifier: 
                DirName:/C=US/ST=Utah/L=Salt Lake City/O=University of Utah/OU=Masters of Software Development/CN=UofUMSD/emailAddress=jonathan.c.sullivan@gmail.com
                serial:D1:E2:A4:97:9C:58:1D:6A

    Signature Algorithm: md5WithRSAEncryption
         95:81:61:4c:1f:c7:97:26:62:45:c5:71:e9:76:6e:19:25:96:
         1b:d2:e7:5b:87:3e:90:75:aa:c0:10:17:cd:53:8e:b9:a6:04:
         08:17:0d:ac:59:3d:61:9d:bf:8a:da:f5:0d:c5:1c:c8:5a:e2:
         76:fb:55:ab:24:dc:69:48:e9:96:7b:19:67:3f:7e:a2:9a:bb:
         ac:b6:35:bf:9f:4a:ad:08:ba:0a:79:e3:8e:27:d7:bd:81:f6:
         db:cc:14:0f:15:6e:09:43:dd:6f:c0:48:72:15:d4:a7:f5:72:
         7d:72:23:0b:9c:78:f4:c4:4b:fd:d1:ce:f6:a9:dd:69:cd:13:
         48:76:f7:dd:da:56:0e:c8:7f:19:67:42:fc:be:b4:98:ea:d1:
         56:14:53:de:e1:f3:ef:50:c4:45:f0:a6:77:eb:74:67:e8:dc:
         b9:22:5a:38:86:02:08:55:e4:68:60:ea:6d:96:0a:63:41:6a:
         d8:a4:f9:88:91:99:bc:fe:54:b4:6e:9c:67:e0:d8:c2:ae:54:
         cb:b6:70:7d:e7:95:4c:64:ab:7c:5a:f8:69:a1:6f:42:89:15:
         ff:ce:c0:0d:ed:6a:ad:69:51:01:a7:11:9b:fd:b8:5d:44:9e:
         74:7a:46:98:6f:19:ed:29:69:90:df:43:84:bc:48:2c:ec:f5:
         44:4c:e1:b5:ac:63:84:17:0c:f1:09:59:16:e8:30:ed:21:b9:
         aa:24:9c:e0:55:3f:0a:90:33:ac:4b:ff:73:fd:a1:5e:6a:7d:
         5c:92:13:91:6d:2d:57:07:b9:9c:10:26:3b:75:0d:c5:6d:96:
         81:95:99:9a:52:05:59:51:cf:0a:7c:41:f9:10:19:a1:d7:96:
         1b:b5:ee:58:80:13:06:37:a1:6a:d9:be:b1:5f:2a:de:82:c0:
         d3:2c:9d:01:79:97:ea:15:c1:9f:7c:72:ab:e1:b1:62:d3:d9:
         4d:a1:bb:39:d0:e4:f1:42:8c:f4:fd:4e:34:a4:05:b3:10:dc:
         99:2b:62:73:ca:ea:ae:d7:e7:a3:ef:cd:cc:d1:07:05:23:79:
         86:c1:2e:0a:25:9a:92:cd:72:ba:33:dc:96:68:e3:55:d4:9b:
         ba:a3:19:44:c4:4f:75:da:72:b1:79:00:2b:1f:78:b6:88:8f:
         67:9b:b5:5b:60:25:1d:71:dc:c8:d0:65:4d:0d:8f:e0:42:cf:
         f7:36:c2:1a:a9:37:f4:7c:58:36:f8:41:f1:e1:e2:c0:dd:1f:
         59:91:61:13:5d:a7:bc:bb:57:8e:a0:19:1f:77:ef:c3:f6:b3:
         78:1a:42:4a:75:6a:0e:a7:7b:4a:de:29:01:29:b7:0b:f1:dd:
         1a:1d:70:80:a6:4c:74:47
-----BEGIN CERTIFICATE-----
MIIHGTCCBQGgAwIBAgICEAAwDQYJKoZIhvcNAQEEBQAwgbwxCzAJBgNVBAYTAlVT
MQ0wCwYDVQQIDARVdGFoMRcwFQYDVQQHDA5TYWx0IExha2UgQ2l0eTEbMBkGA1UE
CgwSVW5pdmVyc2l0eSBvZiBVdGFoMSgwJgYDVQQLDB9NYXN0ZXJzIG9mIFNvZnR3
YXJlIERldmVsb3BtZW50MRAwDgYDVQQDDAdVb2ZVTVNEMSwwKgYJKoZIhvcNAQkB
Fh1qb25hdGhhbi5jLnN1bGxpdmFuQGdtYWlsLmNvbTAeFw0yMDAzMTQxNzI1MDZa
Fw0yMTAzMTQxNzI1MDZaMIGjMQswCQYDVQQGEwJVUzENMAsGA1UECAwEVXRhaDEb
MBkGA1UECgwSVW5pdmVyc2l0eSBvZiBVdGFoMSgwJgYDVQQLDB9NYXN0ZXJzIG9m
IFNvZnR3YXJlIERldmVsb3BtZW50MRAwDgYDVQQDDAdVb2ZVTVNEMSwwKgYJKoZI
hvcNAQkBFh1qb25hdGhhbi5jLnN1bGxpdmFuQGdtYWlsLmNvbTCCAiIwDQYJKoZI
hvcNAQEBBQADggIPADCCAgoCggIBAOZ9KqHJxuBMjfTZe1NCX38Gw8L9DNJSmWlI
JMarNleqIEReD3XBDovKR1uLFH1dfLN0HTQklYZQIu6XmP1C4fDZpGobe65ECG8U
pqtHcxMMVRx3c2dUiHNF/Dvux9MLRx9eTkW9IdSQQLfSAmijkBKBNr9S2259Ao/m
DvDuCS9x1DJX9FpYxGb3OUexYiiv1yjbpyfBZJNTPwslUguTQ3STak0ZCcMieRZ5
0ETSg7YpSuzwYkogDW7EqH68e9vr4qLiuFZTNBCGHbKzBe5rZ9dApj5KrGnXCiCU
hZ8s+ACwhbgmUjoASNr84vVV42vxkSaHVZYbcBatAUvlKRrHKETIuF9LRw+zy8gF
b2m0a+4PWwp8rvumVK+TNVeph6oMe0ruT+VNMXFe4kefMo/sy0e1HixPmwz//lcF
B3jefKXtJ9g7SK3BmCRoDqifkXM1BCnwcnXwofY1gXaXEBKjUOVdNZS7Lq4nhVVH
nMHNVTAqMCBi5PneaoIdWnFJcrdFMuYKmevXvB4A0jCbnTV+F1pp5t5RjsHwDZ83
BwnJmKatCh/1nf7tYUubjcpF6PxjkGBBE2BtfyrtWB80xfRJQUIwU2tIH8tLLZon
ls6dY2dyMJwmIkT4IXNHM28PkoGX7Hh4Gf26gckTfenkxUCxVztlfaR5NsCRE7bt
V5zpAiidAgMBAAGjggE6MIIBNjAJBgNVHRMEAjAAMCwGCWCGSAGG+EIBDQQfFh1P
cGVuU1NMIEdlbmVyYXRlZCBDZXJ0aWZpY2F0ZTAdBgNVHQ4EFgQU2ioTNHWxBQDA
WxjwyEdPtpPjnoIwgdsGA1UdIwSB0zCB0KGBwqSBvzCBvDELMAkGA1UEBhMCVVMx
DTALBgNVBAgMBFV0YWgxFzAVBgNVBAcMDlNhbHQgTGFrZSBDaXR5MRswGQYDVQQK
DBJVbml2ZXJzaXR5IG9mIFV0YWgxKDAmBgNVBAsMH01hc3RlcnMgb2YgU29mdHdh
cmUgRGV2ZWxvcG1lbnQxEDAOBgNVBAMMB1VvZlVNU0QxLDAqBgkqhkiG9w0BCQEW
HWpvbmF0aGFuLmMuc3VsbGl2YW5AZ21haWwuY29tggkA0eKkl5xYHWowDQYJKoZI
hvcNAQEEBQADggIBAJWBYUwfx5cmYkXFcel2bhkllhvS51uHPpB1qsAQF81Tjrmm
BAgXDaxZPWGdv4ra9Q3FHMha4nb7Vask3GlI6ZZ7GWc/fqKau6y2Nb+fSq0Iugp5
444n172B9tvMFA8VbglD3W/ASHIV1Kf1cn1yIwucePTES/3Rzvap3WnNE0h2993a
Vg7IfxlnQvy+tJjq0VYUU97h8+9QxEXwpnfrdGfo3LkiWjiGAghV5Ghg6m2WCmNB
atik+YiRmbz+VLRunGfg2MKuVMu2cH3nlUxkq3xa+Gmhb0KJFf/OwA3taq1pUQGn
EZv9uF1EnnR6RphvGe0paZDfQ4S8SCzs9URM4bWsY4QXDPEJWRboMO0huaoknOBV
PwqQM6xL/3P9oV5qfVySE5FtLVcHuZwQJjt1DcVtloGVmZpSBVlRzwp8QfkQGaHX
lhu17liAEwY3oWrZvrFfKt6CwNMsnQF5l+oVwZ98cqvhsWLT2U2huznQ5PFCjPT9
TjSkBbMQ3JkrYnPK6q7X56PvzczRBwUjeYbBLgolmpLNcroz3JZo41XUm7qjGUTE
T3XacrF5ACsfeLaIj2ebtVtgJR1x3MjQZU0Nj+BCz/c2whqpN/R8WDb4QfHh4sDd
H1mRYRNdp7y7V46gGR9378P2s3gaQkp1ag6ne0reKQEptwvx3RodcICmTHRH
-----END CERTIFICATE-----
