Certificate:
    Data:
        Version: 3 (0x2)
        Serial Number: 4097 (0x1001)
    Signature Algorithm: md5WithRSAEncryption
        Issuer: C=US, ST=Utah, L=Salt Lake City, O=University of Utah, OU=Masters of Software Development, CN=UofUMSD/emailAddress=jonathan.c.sullivan@gmail.com
        Validity
            Not Before: Mar 14 17:27:26 2020 GMT
            Not After : Mar 14 17:27:26 2021 GMT
        Subject: C=US, ST=Utah, O=University of Utah, OU=Masters of Software Development, CN=server/emailAddress=jonathan.c.sullivan@gmail.com
        Subject Public Key Info:
            Public Key Algorithm: rsaEncryption
                Public-Key: (4096 bit)
                Modulus:
                    00:ee:c3:92:c3:92:1d:a8:ed:78:18:0a:e8:46:3a:
                    49:3d:4d:93:7b:1d:4b:7b:ac:72:31:9a:e9:8d:d3:
                    74:25:9c:7f:ee:6c:c1:bc:e7:df:a4:8a:c2:53:34:
                    90:39:2d:32:5b:8e:a3:2c:2e:e3:f4:8f:e3:43:2a:
                    33:94:57:1d:15:a6:83:72:11:29:5f:75:63:8c:3d:
                    09:5b:b8:ac:dd:f4:d6:9a:58:cf:ed:7d:5b:f2:41:
                    02:3a:74:d1:83:13:9e:fb:03:93:af:12:83:2f:8a:
                    26:95:bb:2a:9a:bb:e7:b7:a1:0e:9d:6b:9a:63:7a:
                    b7:10:cc:0c:a8:ec:bb:50:9f:1f:00:04:4e:c7:d7:
                    6b:c2:74:2b:95:ff:0b:b8:70:61:70:3f:e0:f1:e8:
                    b6:2c:5c:fa:26:8d:cd:85:57:24:d3:b2:0e:dd:82:
                    80:d6:4f:06:06:93:1b:7f:1d:91:b1:f1:50:0e:c1:
                    f7:3b:01:c4:ef:a5:96:dd:5d:5a:aa:8a:69:43:c8:
                    ae:74:e5:46:71:20:bf:9b:ff:cd:11:f1:64:ab:92:
                    46:53:0b:8f:78:a5:c2:4e:a9:da:96:a8:83:d3:4a:
                    a1:47:93:11:19:cf:5a:a3:9d:79:bf:ca:fb:60:b7:
                    d7:52:c0:08:d3:2e:89:88:13:b7:06:f3:ba:99:66:
                    34:8c:48:2d:8d:1c:04:07:73:c8:00:0a:c5:10:32:
                    9d:d1:e3:fa:01:54:ba:26:5d:ca:68:1c:f3:2c:4d:
                    3b:d6:92:bd:05:52:69:59:f3:ad:3a:27:36:24:c6:
                    d2:27:02:ef:cb:c9:2e:cc:1c:05:89:8d:e3:b2:6a:
                    d2:b3:b6:ed:d7:c4:82:87:92:f1:8f:b1:59:b4:79:
                    b3:ef:c3:f9:ff:d2:11:12:02:5f:93:e8:1f:9e:6a:
                    78:d9:fb:c5:3f:bb:6d:90:38:e3:10:08:55:cd:d4:
                    27:42:03:c3:ca:90:d8:ab:79:49:f0:ee:ad:a4:b7:
                    7b:89:85:50:89:2b:e2:5d:67:cc:4d:7f:27:23:0e:
                    e8:08:ff:39:96:a6:44:49:ba:62:33:92:a8:2a:3d:
                    76:29:50:4e:25:1b:30:0f:a2:f6:1d:85:c3:02:4a:
                    c8:91:cc:7d:b0:4f:4b:8e:1e:53:49:30:88:99:87:
                    05:00:c0:f4:47:a1:5d:00:d9:4d:7f:e3:99:60:2c:
                    50:4b:8c:1b:c4:b0:55:af:08:5f:5a:4f:92:27:a3:
                    46:61:c7:01:c8:66:47:ac:c0:d1:e9:69:a8:7c:63:
                    46:c4:af:08:86:40:cc:fc:52:2e:8e:d3:64:6f:3f:
                    d6:71:e2:ce:a1:d8:01:b7:07:89:6e:5b:eb:d9:c5:
                    83:75:13
                Exponent: 65537 (0x10001)
        X509v3 extensions:
            X509v3 Basic Constraints: 
                CA:FALSE
            Netscape Comment: 
                OpenSSL Generated Certificate
            X509v3 Subject Key Identifier: 
                F6:D8:6B:EC:E5:49:AD:73:A8:FF:52:9A:0B:0A:DF:27:25:3F:36:50
            X509v3 Authority Key Identifier: 
                DirName:/C=US/ST=Utah/L=Salt Lake City/O=University of Utah/OU=Masters of Software Development/CN=UofUMSD/emailAddress=jonathan.c.sullivan@gmail.com
                serial:D1:E2:A4:97:9C:58:1D:6A

    Signature Algorithm: md5WithRSAEncryption
         3c:e6:17:8f:d3:44:fa:ea:a5:7f:a6:d9:e6:b1:fe:44:9e:92:
         d3:84:aa:7c:78:89:c2:f1:76:4e:06:f5:78:bd:f9:15:71:f3:
         86:98:57:2b:a8:00:f8:8a:f7:a1:fd:d7:97:51:23:cf:bc:0a:
         e9:6e:e7:ff:4e:63:f8:be:94:8d:9c:3d:60:c0:8b:83:d7:14:
         95:64:75:17:8a:ed:f1:b4:b9:53:6c:6a:2b:3b:dc:c0:c4:ab:
         54:9b:f6:a3:4e:33:88:f5:23:55:2b:4a:45:c2:62:e2:24:1e:
         6e:6e:52:00:f8:b1:e6:1b:6d:3f:6e:b8:5d:5a:b0:cf:6f:26:
         c9:ae:eb:ad:61:bd:27:43:36:68:ee:a6:4c:4a:72:48:37:0f:
         00:03:1c:30:92:57:6b:d2:6d:d9:e9:d3:82:4b:5d:0b:8a:a6:
         54:b1:f3:ed:62:f7:28:3f:23:26:cd:58:35:fc:3b:03:4e:7b:
         6a:cd:9d:92:72:17:90:b9:cc:ea:4c:ab:b0:c5:33:dd:25:47:
         6f:ae:0d:68:6e:f8:b1:5d:79:aa:6e:00:8d:42:a3:30:78:f1:
         95:b3:b2:af:ab:92:2d:e9:4e:5b:51:4a:56:e3:1f:0c:d0:cb:
         0a:a3:2a:98:65:a6:16:fe:fa:e2:00:11:85:39:61:aa:5a:e2:
         5c:93:4b:60:e0:22:3a:ad:71:7a:4f:6e:95:06:60:49:e0:76:
         e5:c5:d3:f4:30:fe:22:73:bc:58:d7:41:18:44:a6:fb:b2:32:
         9e:0d:a4:0d:5c:e4:f4:54:98:56:c7:4c:f5:76:3f:4e:cc:cc:
         fe:d2:1c:e8:54:a7:6d:f3:c7:ea:3c:a4:91:67:4e:31:f5:f3:
         36:e9:80:6b:d0:c5:ad:56:96:20:49:36:0f:ec:a9:1a:60:44:
         36:a3:fb:98:b3:1d:d7:bf:64:e7:38:5a:9a:a1:e7:2a:bf:95:
         33:37:50:e1:14:e1:d8:58:fc:31:84:c0:b2:98:9d:5e:fc:5b:
         4f:af:80:1e:bd:22:39:31:70:33:8d:fc:60:68:68:68:62:5a:
         b7:1d:36:22:f7:d6:3e:9f:1b:ee:96:f1:25:14:70:d8:03:6a:
         8a:cb:f0:15:ef:98:1d:f4:21:a4:32:ef:f0:7d:03:18:8e:98:
         e6:6d:4d:b5:5a:26:f7:25:eb:d6:b9:9f:c6:6c:84:97:fc:ab:
         7a:00:d1:dc:49:54:cb:f3:40:72:62:32:2d:34:9d:6b:11:fc:
         b9:1c:e5:39:21:f6:2f:ef:de:fd:7c:90:f2:14:c2:27:7b:90:
         3c:6f:6a:cb:d7:74:0b:e4:22:d5:c3:c2:97:26:c5:be:4f:04:
         d6:56:9e:98:96:44:12:1d
-----BEGIN CERTIFICATE-----
MIIHGDCCBQCgAwIBAgICEAEwDQYJKoZIhvcNAQEEBQAwgbwxCzAJBgNVBAYTAlVT
MQ0wCwYDVQQIDARVdGFoMRcwFQYDVQQHDA5TYWx0IExha2UgQ2l0eTEbMBkGA1UE
CgwSVW5pdmVyc2l0eSBvZiBVdGFoMSgwJgYDVQQLDB9NYXN0ZXJzIG9mIFNvZnR3
YXJlIERldmVsb3BtZW50MRAwDgYDVQQDDAdVb2ZVTVNEMSwwKgYJKoZIhvcNAQkB
Fh1qb25hdGhhbi5jLnN1bGxpdmFuQGdtYWlsLmNvbTAeFw0yMDAzMTQxNzI3MjZa
Fw0yMTAzMTQxNzI3MjZaMIGiMQswCQYDVQQGEwJVUzENMAsGA1UECAwEVXRhaDEb
MBkGA1UECgwSVW5pdmVyc2l0eSBvZiBVdGFoMSgwJgYDVQQLDB9NYXN0ZXJzIG9m
IFNvZnR3YXJlIERldmVsb3BtZW50MQ8wDQYDVQQDDAZzZXJ2ZXIxLDAqBgkqhkiG
9w0BCQEWHWpvbmF0aGFuLmMuc3VsbGl2YW5AZ21haWwuY29tMIICIjANBgkqhkiG
9w0BAQEFAAOCAg8AMIICCgKCAgEA7sOSw5IdqO14GAroRjpJPU2Tex1Le6xyMZrp
jdN0JZx/7mzBvOffpIrCUzSQOS0yW46jLC7j9I/jQyozlFcdFaaDchEpX3VjjD0J
W7is3fTWmljP7X1b8kECOnTRgxOe+wOTrxKDL4omlbsqmrvnt6EOnWuaY3q3EMwM
qOy7UJ8fAAROx9drwnQrlf8LuHBhcD/g8ei2LFz6Jo3NhVck07IO3YKA1k8GBpMb
fx2RsfFQDsH3OwHE76WW3V1aqoppQ8iudOVGcSC/m//NEfFkq5JGUwuPeKXCTqna
lqiD00qhR5MRGc9ao515v8r7YLfXUsAI0y6JiBO3BvO6mWY0jEgtjRwEB3PIAArF
EDKd0eP6AVS6Jl3KaBzzLE071pK9BVJpWfOtOic2JMbSJwLvy8kuzBwFiY3jsmrS
s7bt18SCh5Lxj7FZtHmz78P5/9IREgJfk+gfnmp42fvFP7ttkDjjEAhVzdQnQgPD
ypDYq3lJ8O6tpLd7iYVQiSviXWfMTX8nIw7oCP85lqZESbpiM5KoKj12KVBOJRsw
D6L2HYXDAkrIkcx9sE9Ljh5TSTCImYcFAMD0R6FdANlNf+OZYCxQS4wbxLBVrwhf
Wk+SJ6NGYccByGZHrMDR6WmofGNGxK8IhkDM/FIujtNkbz/WceLOodgBtweJblvr
2cWDdRMCAwEAAaOCATowggE2MAkGA1UdEwQCMAAwLAYJYIZIAYb4QgENBB8WHU9w
ZW5TU0wgR2VuZXJhdGVkIENlcnRpZmljYXRlMB0GA1UdDgQWBBT22Gvs5Umtc6j/
UpoLCt8nJT82UDCB2wYDVR0jBIHTMIHQoYHCpIG/MIG8MQswCQYDVQQGEwJVUzEN
MAsGA1UECAwEVXRhaDEXMBUGA1UEBwwOU2FsdCBMYWtlIENpdHkxGzAZBgNVBAoM
ElVuaXZlcnNpdHkgb2YgVXRhaDEoMCYGA1UECwwfTWFzdGVycyBvZiBTb2Z0d2Fy
ZSBEZXZlbG9wbWVudDEQMA4GA1UEAwwHVW9mVU1TRDEsMCoGCSqGSIb3DQEJARYd
am9uYXRoYW4uYy5zdWxsaXZhbkBnbWFpbC5jb22CCQDR4qSXnFgdajANBgkqhkiG
9w0BAQQFAAOCAgEAPOYXj9NE+uqlf6bZ5rH+RJ6S04SqfHiJwvF2Tgb1eL35FXHz
hphXK6gA+Ir3of3Xl1Ejz7wK6W7n/05j+L6UjZw9YMCLg9cUlWR1F4rt8bS5U2xq
KzvcwMSrVJv2o04ziPUjVStKRcJi4iQebm5SAPix5httP264XVqwz28mya7rrWG9
J0M2aO6mTEpySDcPAAMcMJJXa9Jt2enTgktdC4qmVLHz7WL3KD8jJs1YNfw7A057
as2dknIXkLnM6kyrsMUz3SVHb64NaG74sV15qm4AjUKjMHjxlbOyr6uSLelOW1FK
VuMfDNDLCqMqmGWmFv764gARhTlhqlriXJNLYOAiOq1xek9ulQZgSeB25cXT9DD+
InO8WNdBGESm+7Iyng2kDVzk9FSYVsdM9XY/TszM/tIc6FSnbfPH6jykkWdOMfXz
NumAa9DFrVaWIEk2D+ypGmBENqP7mLMd179k5zhamqHnKr+VMzdQ4RTh2Fj8MYTA
spidXvxbT6+AHr0iOTFwM438YGhoaGJatx02IvfWPp8b7pbxJRRw2ANqisvwFe+Y
HfQhpDLv8H0DGI6Y5m1NtVom9yXr1rmfxmyEl/yregDR3ElUy/NAcmIyLTSdaxH8
uRzlOSH2L+/e/XyQ8hTCJ3uQPG9qy9d0C+Qi1cPClybFvk8E1laemJZEEh0=
-----END CERTIFICATE-----
